; Function Attrs: nounwind uwtable
define ptr @l_Lake_Toml_instSmartInsertString(ptr noundef %0, ptr noundef %1, ptr noundef %2) local_unnamed_addr #0 {
lean_dec.exit18:
  %3 = getelementptr i8, ptr %1, i64 8
  %.val = load i64, ptr %3, align 8, !tbaa !14
  %.mask = and i64 %.val, 9223372036854775807
  %.not = icmp eq i64 %.mask, 1
  br i1 %.not, label %13, label %4

4:                                                ; preds = %lean_dec.exit18
  tail call void @lean_inc_heartbeat() #4
  %5 = tail call noalias ptr @mi_malloc_small(i64 noundef 24) #4
  %6 = icmp eq ptr %5, null
  br i1 %6, label %7, label %lean_alloc_ctor.exit

7:                                                ; preds = %4
  tail call void @lean_internal_panic_out_of_memory() #5
  unreachable

lean_alloc_ctor.exit:                             ; preds = %4
  %8 = getelementptr inbounds nuw i8, ptr %5, i64 4
  store i32 1, ptr %5, align 4, !tbaa !4
  store i32 131096, ptr %8, align 4
  %9 = getelementptr inbounds nuw i8, ptr %5, i64 8
  store ptr inttoptr (i64 1 to ptr), ptr %9, align 8, !tbaa !9
  %10 = getelementptr inbounds nuw i8, ptr %5, i64 16
  store ptr %1, ptr %10, align 8, !tbaa !9
  %11 = load ptr, ptr @l_Lake_Toml_instSmartInsertOfToToml_x3f___rarg___closed__1, align 8, !tbaa !9
  %12 = tail call ptr @l_Lake_Toml_RBDict_insert___rarg(ptr noundef %11, ptr noundef %0, ptr noundef nonnull %5, ptr noundef %2) #4
  br label %lean_dec.exit

13:                                               ; preds = %lean_dec.exit18
  %14 = ptrtoint ptr %1 to i64
  %15 = and i64 %14, 1
  %.not23 = icmp eq i64 %15, 0
  br i1 %.not23, label %16, label %lean_dec.exit17

16:                                               ; preds = %13
  %17 = load i32, ptr %1, align 4, !tbaa !4
  %18 = icmp sgt i32 %17, 1
  br i1 %18, label %19, label %21, !prof !11

19:                                               ; preds = %16
  %20 = add nsw i32 %17, -1
  store i32 %20, ptr %1, align 4, !tbaa !4
  br label %lean_dec.exit17

21:                                               ; preds = %16
  %.not.i19 = icmp eq i32 %17, 0
  br i1 %.not.i19, label %lean_dec.exit17, label %22

22:                                               ; preds = %21
  tail call void @lean_dec_ref_cold(ptr noundef nonnull %1) #4
  br label %lean_dec.exit17

lean_dec.exit17:                                  ; preds = %22, %21, %19, %13
  %23 = ptrtoint ptr %0 to i64
  %24 = and i64 %23, 1
  %.not24 = icmp eq i64 %24, 0
  br i1 %.not24, label %25, label %lean_dec.exit

25:                                               ; preds = %lean_dec.exit17
  %26 = load i32, ptr %0, align 4, !tbaa !4
  %27 = icmp sgt i32 %26, 1
  br i1 %27, label %28, label %30, !prof !11

28:                                               ; preds = %25
  %29 = add nsw i32 %26, -1
  store i32 %29, ptr %0, align 4, !tbaa !4
  br label %lean_dec.exit

30:                                               ; preds = %25
  %.not.i21 = icmp eq i32 %26, 0
  br i1 %.not.i21, label %lean_dec.exit, label %31

31:                                               ; preds = %30
  tail call void @lean_dec_ref_cold(ptr noundef nonnull %0) #4
  br label %lean_dec.exit

lean_dec.exit:                                    ; preds = %lean_dec.exit17, %28, %30, %31, %lean_alloc_ctor.exit
  %.0 = phi ptr [ %12, %lean_alloc_ctor.exit ], [ %2, %31 ], [ %2, %30 ], [ %2, %28 ], [ %2, %lean_dec.exit17 ]
  ret ptr %.0
}